target datalayout = "e-m:e-p270:32:32-p271:32:32-p272:64:64-i64:64-i128:128-f80:128-n8:16:32:64-S128"
target triple = "x86_64-pc-linux-gnu"

%struct.GlobalContext = type { %struct.HTable, ptr, ptr, ptr, ptr, ptr, ptr, ptr, ptr, i8, i32, i32, i32, ptr, ptr, %struct.HTable, %struct.HTable, %struct.Module_, %struct.DeclTable, %struct.DeclTable, %struct.Path_, ptr, ptr, ptr, ptr, ptr, ptr, ptr, [65536 x ptr], ptr, ptr, ptr }
%struct.HTable = type { i32, ptr }
%struct.Module_ = type { ptr, ptr, ptr, i16, i32, ptr, %struct.HTable, ptr, ptr, ptr, ptr, ptr, ptr, ptr, ptr, ptr }
%struct.DeclTable = type { i32, i32, i32, ptr }
%struct.Path_ = type { %union.SourceSpan, ptr, i32 }
%union.SourceSpan = type { i64 }
%struct.Int = type { %struct.Int128_, i32 }
%struct.Int128_ = type { i64, i64 }
%struct.Expr_ = type { ptr, %union.SourceSpan, i16, %union.anon.61 }
%union.anon.61 = type { %struct.ExprAnySwitch }
%struct.ExprAnySwitch = type { i8, %union.anon.63 }
%union.anon.63 = type { %struct.anon.64 }
%struct.anon.64 = type { ptr, %union.SourceSpan, ptr }
%struct.ExprConst = type { i16, %union.anon.70 }
%union.anon.70 = type { %struct.Int }
%struct.ExprIdentifier = type { %union.anon.76 }
%union.anon.76 = type { %struct.anon.77 }
%struct.anon.77 = type { ptr, ptr, i8 }
%struct.ExprCtCall = type { i32, %union.anon.73 }
%union.anon.73 = type { %struct.anon.74 }
%struct.anon.74 = type { ptr, ptr }

@type_bool = external global ptr, align 8
@global_context = external global %struct.GlobalContext, align 8
@.str.166 = private unnamed_addr constant [57 x i8] c"Expected a feature name here, e.g. $feature(MY_FEATURE).\00", align 1

; Function Attrs: nounwind uwtable
define internal zeroext i1 @sema_expr_analyse_ct_feature(ptr noundef %0, ptr noundef %1) #0 {
  %3 = alloca ptr, align 8
  %4 = alloca ptr, align 8
  %5 = alloca i8, align 1
  %6 = alloca %struct.ExprConst, align 8
  %7 = alloca ptr, align 8
  %8 = alloca i1, align 1
  %9 = alloca ptr, align 8
  %10 = alloca ptr, align 8
  %11 = alloca ptr, align 8
  %12 = alloca ptr, align 8
  %13 = alloca ptr, align 8
  store ptr %0, ptr %9, align 8
  store ptr %1, ptr %10, align 8
  %14 = load ptr, ptr %10, align 8
  %15 = getelementptr inbounds %struct.Expr_, ptr %14, i32 0, i32 2
  %16 = load i16, ptr %15, align 8
  %17 = lshr i16 %16, 8
  %18 = and i16 %17, 15
  %19 = zext i16 %18 to i32
  %20 = icmp eq i32 %19, 2
  br i1 %20, label %21, label %34

21:                                               ; preds = %2
  %22 = load ptr, ptr %10, align 8
  store ptr %22, ptr %7, align 8
  %23 = load ptr, ptr %7, align 8
  %24 = icmp eq ptr %23, null
  br i1 %24, label %32, label %25

25:                                               ; preds = %21
  %26 = load ptr, ptr %7, align 8
  %27 = getelementptr inbounds %struct.Expr_, ptr %26, i32 0, i32 2
  %28 = load i16, ptr %27, align 8
  %29 = and i16 %28, 255
  %30 = zext i16 %29 to i32
  %31 = icmp ne i32 %30, 0
  br label %32

32:                                               ; preds = %25, %21
  %33 = phi i1 [ true, %21 ], [ %31, %25 ]
  store i1 %33, ptr %8, align 1
  br label %112

34:                                               ; preds = %2
  %35 = load ptr, ptr %10, align 8
  %36 = getelementptr inbounds %struct.Expr_, ptr %35, i32 0, i32 3
  %37 = getelementptr inbounds %struct.ExprCtCall, ptr %36, i32 0, i32 1
  %38 = getelementptr inbounds %struct.anon.74, ptr %37, i32 0, i32 0
  %39 = load ptr, ptr %38, align 8
  store ptr %39, ptr %11, align 8
  %40 = load ptr, ptr %10, align 8
  %41 = getelementptr inbounds %struct.Expr_, ptr %40, i32 0, i32 3
  %42 = getelementptr inbounds %struct.ExprCtCall, ptr %41, i32 0, i32 1
  %43 = getelementptr inbounds %struct.anon.74, ptr %42, i32 0, i32 1
  %44 = load ptr, ptr %43, align 8
  %45 = icmp ne ptr %44, null
  br i1 %45, label %46, label %47

46:                                               ; preds = %34
  br label %106

47:                                               ; preds = %34
  %48 = load ptr, ptr %11, align 8
  %49 = getelementptr inbounds %struct.Expr_, ptr %48, i32 0, i32 2
  %50 = load i16, ptr %49, align 8
  %51 = and i16 %50, 255
  %52 = zext i16 %51 to i32
  %53 = icmp ne i32 %52, 34
  br i1 %53, label %54, label %55

54:                                               ; preds = %47
  br label %106

55:                                               ; preds = %47
  %56 = load ptr, ptr %11, align 8
  %57 = getelementptr inbounds %struct.Expr_, ptr %56, i32 0, i32 2
  %58 = load i16, ptr %57, align 8
  %59 = lshr i16 %58, 8
  %60 = and i16 %59, 15
  %61 = zext i16 %60 to i32
  %62 = icmp ne i32 %61, 0
  br i1 %62, label %63, label %64

63:                                               ; preds = %55
  br label %106

64:                                               ; preds = %55
  %65 = load ptr, ptr %11, align 8
  %66 = getelementptr inbounds %struct.Expr_, ptr %65, i32 0, i32 3
  %67 = getelementptr inbounds %struct.ExprIdentifier, ptr %66, i32 0, i32 0
  %68 = getelementptr inbounds %struct.anon.77, ptr %67, i32 0, i32 2
  %69 = load i8, ptr %68, align 8
  %70 = trunc i8 %69 to i1
  br i1 %70, label %72, label %71

71:                                               ; preds = %64
  br label %106

72:                                               ; preds = %64
  %73 = load ptr, ptr %11, align 8
  %74 = getelementptr inbounds %struct.Expr_, ptr %73, i32 0, i32 3
  %75 = getelementptr inbounds %struct.ExprIdentifier, ptr %74, i32 0, i32 0
  %76 = getelementptr inbounds %struct.anon.77, ptr %75, i32 0, i32 1
  %77 = load ptr, ptr %76, align 8
  store ptr %77, ptr %12, align 8
  %78 = load ptr, ptr %12, align 8
  %79 = call ptr @htable_get(ptr noundef getelementptr inbounds (%struct.GlobalContext, ptr @global_context, i32 0, i32 16), ptr noundef %78)
  store ptr %79, ptr %13, align 8
  %80 = load ptr, ptr %10, align 8
  %81 = load ptr, ptr @type_bool, align 8
  %82 = load ptr, ptr %13, align 8
  %83 = icmp ne ptr %82, null
  store ptr %80, ptr %3, align 8
  store ptr %81, ptr %4, align 8
  %84 = zext i1 %83 to i8
  store i8 %84, ptr %5, align 1
  %85 = load ptr, ptr %3, align 8
  %86 = getelementptr inbounds %struct.Expr_, ptr %85, i32 0, i32 2
  %87 = load i16, ptr %86, align 8
  %88 = and i16 %87, -256
  %89 = or i16 %88, 14
  store i16 %89, ptr %86, align 8
  %90 = load ptr, ptr %4, align 8
  %91 = load ptr, ptr %3, align 8
  store ptr %90, ptr %91, align 8
  %92 = load ptr, ptr %3, align 8
  %93 = getelementptr inbounds %struct.Expr_, ptr %92, i32 0, i32 3
  call void @llvm.memset.p0.i64(ptr align 8 %6, i8 0, i64 32, i1 false)
  %94 = load i16, ptr %6, align 8
  %95 = and i16 %94, -256
  %96 = or i16 %95, 2
  store i16 %96, ptr %6, align 8
  %97 = getelementptr inbounds %struct.ExprConst, ptr %6, i32 0, i32 1
  %98 = load i8, ptr %5, align 1
  %99 = trunc i8 %98 to i1
  %100 = zext i1 %99 to i8
  store i8 %100, ptr %97, align 8
  call void @llvm.memcpy.p0.p0.i64(ptr align 8 %93, ptr align 8 %6, i64 32, i1 false)
  %101 = load ptr, ptr %3, align 8
  %102 = getelementptr inbounds %struct.Expr_, ptr %101, i32 0, i32 2
  %103 = load i16, ptr %102, align 8
  %104 = and i16 %103, -3841
  %105 = or i16 %104, 512
  store i16 %105, ptr %102, align 8
  store i1 true, ptr %8, align 1
  br label %112

106:                                              ; preds = %71, %63, %54, %46
  br label %107

107:                                              ; preds = %106
  %108 = load ptr, ptr %11, align 8
  %109 = getelementptr inbounds %struct.Expr_, ptr %108, i32 0, i32 1
  %110 = getelementptr inbounds %union.SourceSpan, ptr %109, i32 0, i32 0
  %111 = load i64, ptr %110, align 8
  call void (i64, ptr, ...) @sema_error_at(i64 %111, ptr noundef @.str.166)
  store i1 false, ptr %8, align 1
  br label %112

112:                                              ; preds = %107, %72, %32
  %113 = load i1, ptr %8, align 1
  ret i1 %113
}