; Function Attrs: nounwind uwtable
define internal fastcc zeroext i1 @sema_expr_analyse_ct_feature(ptr nocapture noundef %0) unnamed_addr #0 {
  %2 = getelementptr inbounds i8, ptr %0, i64 16
  %3 = load i16, ptr %2, align 8
  %4 = and i16 %3, 3840
  %5 = icmp eq i16 %4, 512
  br i1 %5, label %6, label %9

6:                                                ; preds = %1
  %7 = and i16 %3, 255
  %8 = icmp ne i16 %7, 0
  br label %36

9:                                                ; preds = %1
  %10 = getelementptr inbounds i8, ptr %0, i64 24
  %11 = getelementptr inbounds i8, ptr %0, i64 32
  %12 = load ptr, ptr %11, align 8
  %13 = getelementptr inbounds i8, ptr %0, i64 40
  %14 = load ptr, ptr %13, align 8
  %.not = icmp eq ptr %14, null
  br i1 %.not, label %15, label %33

15:                                               ; preds = %9
  %16 = getelementptr inbounds i8, ptr %12, i64 16
  %17 = load i16, ptr %16, align 8
  %18 = and i16 %17, 4095
  %or.cond = icmp eq i16 %18, 34
  br i1 %or.cond, label %19, label %33

19:                                               ; preds = %15
  %20 = getelementptr inbounds i8, ptr %12, i64 40
  %21 = load i8, ptr %20, align 8
  %22 = trunc i8 %21 to i1
  br i1 %22, label %23, label %33

23:                                               ; preds = %19
  %24 = getelementptr inbounds i8, ptr %12, i64 32
  %25 = load ptr, ptr %24, align 8
  %26 = tail call ptr @htable_get(ptr noundef nonnull getelementptr inbounds (%struct.GlobalContext, ptr @global_context, i64 0, i32 16), ptr noundef %25) #13
  %27 = load ptr, ptr @type_bool, align 8
  %28 = icmp ne ptr %26, null
  %29 = zext i1 %28 to i8
  %30 = load i16, ptr %2, align 8
  store ptr %27, ptr %0, align 8
  store i16 2, ptr %10, align 8
  %.sroa.4.0..sroa_idx = getelementptr inbounds i8, ptr %0, i64 26
  tail call void @llvm.memset.p0.i64(ptr noundef nonnull align 2 dereferenceable(6) %.sroa.4.0..sroa_idx, i8 0, i64 6, i1 false)
  store i8 %29, ptr %11, align 8
  %.sroa.5.0..sroa_idx = getelementptr inbounds i8, ptr %0, i64 33
  tail call void @llvm.memset.p0.i64(ptr noundef nonnull align 1 dereferenceable(23) %.sroa.5.0..sroa_idx, i8 0, i64 23, i1 false)
  %31 = and i16 %30, -4096
  %32 = or disjoint i16 %31, 526
  store i16 %32, ptr %2, align 8
  br label %36

33:                                               ; preds = %9, %15, %19
  %34 = getelementptr inbounds i8, ptr %12, i64 8
  %35 = load i64, ptr %34, align 8
  tail call void (i64, ptr, ...) @sema_error_at(i64 %35, ptr noundef nonnull @.str.166) #13
  br label %36

36:                                               ; preds = %33, %23, %6
  %.0 = phi i1 [ %8, %6 ], [ false, %33 ], [ true, %23 ]
  ret i1 %.0
}